; ModuleID = '30/2499.c'
source_filename = "30/2499.c"
target datalayout = "e-m:e-p270:32:32-p271:32:32-p272:64:64-i64:64-f80:128-n8:16:32:64-S128"
target triple = "x86_64-pc-linux-gnu"

@.str = private unnamed_addr constant [3 x i8] c"%d\00", align 1

; Function Attrs: noinline nounwind uwtable
define dso_local i32 @main() #0 {
  %1 = alloca i32, align 4
  %2 = alloca i32, align 4
  %3 = alloca i32, align 4
  %4 = alloca i32, align 4
  store i32 0, i32* %1, align 4
  store i32 0, i32* %3, align 4
  store i32 1, i32* %4, align 4
  %5 = call i32 (i8*, ...) @__isoc99_scanf(i8* getelementptr inbounds ([3 x i8], [3 x i8]* @.str, i64 0, i64 0), i32* %2)
  br label %6

6:                                                ; preds = %31, %28, %21, %14, %0
  %7 = load i32, i32* %4, align 4
  %8 = load i32, i32* %2, align 4
  %9 = icmp sle i32 %7, %8
  br i1 %9, label %10, label %39

10:                                               ; preds = %6
  %11 = load i32, i32* %4, align 4
  %12 = srem i32 %11, 7
  %13 = icmp eq i32 %12, 0
  br i1 %13, label %14, label %17

14:                                               ; preds = %10
  %15 = load i32, i32* %4, align 4
  %16 = add nsw i32 %15, 1
  store i32 %16, i32* %4, align 4
  br label %6

17:                                               ; preds = %10
  %18 = load i32, i32* %4, align 4
  %19 = sdiv i32 %18, 10
  %20 = icmp eq i32 %19, 7
  br i1 %20, label %21, label %24

21:                                               ; preds = %17
  %22 = load i32, i32* %4, align 4
  %23 = add nsw i32 %22, 1
  store i32 %23, i32* %4, align 4
  br label %6

24:                                               ; preds = %17
  %25 = load i32, i32* %4, align 4
  %26 = srem i32 %25, 10
  %27 = icmp eq i32 %26, 7
  br i1 %27, label %28, label %31

28:                                               ; preds = %24
  %29 = load i32, i32* %4, align 4
  %30 = add nsw i32 %29, 1
  store i32 %30, i32* %4, align 4
  br label %6

31:                                               ; preds = %24
  %32 = load i32, i32* %4, align 4
  %33 = load i32, i32* %4, align 4
  %34 = mul nsw i32 %32, %33
  %35 = load i32, i32* %3, align 4
  %36 = add nsw i32 %35, %34
  store i32 %36, i32* %3, align 4
  %37 = load i32, i32* %4, align 4
  %38 = add nsw i32 %37, 1
  store i32 %38, i32* %4, align 4
  br label %6

39:                                               ; preds = %6
  %40 = load i32, i32* %3, align 4
  %41 = call i32 (i8*, ...) @printf(i8* getelementptr inbounds ([3 x i8], [3 x i8]* @.str, i64 0, i64 0), i32 %40)
  %42 = load i32, i32* %1, align 4
  ret i32 %42
}

declare dso_local i32 @__isoc99_scanf(i8*, ...) #1

declare dso_local i32 @printf(i8*, ...) #1


!llvm.module.flags = !{!0}
!llvm.ident = !{!1}

!0 = !{i32 1, !"wchar_size", i32 4}
!1 = !{!"clang version 10.0.0-4ubuntu1 "}
